target datalayout = "e-m:e-p270:32:32-p271:32:32-p272:64:64-i64:64-i128:128-f80:128-n8:16:32:64-S128"
target triple = "x86_64-unknown-linux-gnu"

%"class.Assimp::Logger" = type <{ ptr, i32, [4 x i8] }>

@_ZN6AssimpL15gVerboseLoggingE = internal global i32 0, align 4

; Function Attrs: mustprogress nounwind uwtable
define linkonce_odr void @_ZN6Assimp6Logger14setLogSeverityENS0_11LogSeverityE(ptr noundef nonnull align 8 dereferenceable(12) %this, i32 noundef %log_severity) #0 comdat align 2 {
entry:
  %this.addr = alloca ptr, align 8
  %log_severity.addr = alloca i32, align 4
  store ptr %this, ptr %this.addr, align 8
  store i32 %log_severity, ptr %log_severity.addr, align 4
  %this1 = load ptr, ptr %this.addr, align 8
  %0 = load i32, ptr %log_severity.addr, align 4
  %m_Severity = getelementptr inbounds %"class.Assimp::Logger", ptr %this1, i32 0, i32 1
  store i32 %0, ptr %m_Severity, align 8
  ret void
}

; Function Attrs: mustprogress uwtable
define void @aiEnableVerboseLogging(i32 noundef %d) #5 {
entry:
  %d.addr = alloca i32, align 4
  store i32 %d, ptr %d.addr, align 4
  %call = call noundef zeroext i1 @_ZN6Assimp13DefaultLogger12isNullLoggerEv()
  br i1 %call, label %if.end, label %if.then

if.then:                                          ; preds = %entry
  %call1 = call noundef ptr @_ZN6Assimp13DefaultLogger3getEv()
  %0 = load i32, ptr %d.addr, align 4
  %cmp = icmp eq i32 %0, 1
  %cond = select i1 %cmp, i32 2, i32 0
  call void @_ZN6Assimp6Logger14setLogSeverityENS0_11LogSeverityE(ptr noundef nonnull align 8 dereferenceable(12) %call1, i32 noundef %cond)
  br label %if.end

if.end:                                           ; preds = %if.then, %entry
  %1 = load i32, ptr %d.addr, align 4
  store i32 %1, ptr @_ZN6AssimpL15gVerboseLoggingE, align 4
  ret void
}