; Function Attrs: mustprogress uwtable
define void @aiEnableVerboseLogging(i32 noundef %d) local_unnamed_addr #3 {
entry:
  %call = tail call noundef zeroext i1 @_ZN6Assimp13DefaultLogger12isNullLoggerEv()
  br i1 %call, label %if.end, label %if.then

if.then:                                          ; preds = %entry
  %call1 = tail call noundef ptr @_ZN6Assimp13DefaultLogger3getEv()
  %cmp = icmp eq i32 %d, 1
  %cond = select i1 %cmp, i32 2, i32 0
  %m_Severity.i = getelementptr inbounds i8, ptr %call1, i64 8
  store i32 %cond, ptr %m_Severity.i, align 8
  br label %if.end

if.end:                                           ; preds = %if.then, %entry
  store i32 %d, ptr @_ZN6AssimpL15gVerboseLoggingE, align 4
  ret void
}